target datalayout = "e-m:e-p270:32:32-p271:32:32-p272:64:64-i64:64-i128:128-f80:128-n8:16:32:64-S128"
target triple = "x86_64-pc-linux-gnu"

%struct.ssl_st = type { i32, i16, i16, ptr, ptr, ptr, ptr, ptr, i32, i32, ptr, ptr, i32, i32, ptr, ptr, ptr, ptr, ptr, ptr, ptr, ptr, i32, i32, [32 x i8], ptr, ptr, ptr, ptr, ptr, ptr, ptr, i64, %struct.crypto_ex_data_st, ptr, i32, i32, i32, i32, i16, ptr, i32, i64, ptr, ptr, ptr, ptr, ptr, ptr, i32, i32, ptr, ptr, i8, i8, i32 }
%struct.crypto_ex_data_st = type { ptr }
%struct.ssl_protocol_method_st = type { i8, ptr, ptr, ptr, ptr, ptr, ptr, ptr, ptr, ptr, ptr, ptr, i32, ptr, ptr }
%struct.ssl_session_st = type { i32, i32, i32, i32, [48 x i8], i32, [32 x i8], i32, [32 x i8], ptr, ptr, ptr, i64, i64, i64, ptr, %struct.crypto_ex_data_st, ptr, ptr, ptr, ptr, i64, i64, ptr, i64, ptr, [32 x i8], [64 x i8], i32, i32, i8 }
%struct.cbs_st = type { ptr, i64 }
%struct.evp_pkey_st = type { i32, i32, %union.anon.1, ptr }
%union.anon.1 = type { ptr }

@.str = private unnamed_addr constant [117 x i8] c"generated/home/dtcxzyw/WorkSpace/Projects/compilers/llvm-opt-benchmark/bench/libquic/libquic/boringssl/ssl/s3_srvr.c\00", align 1

; Function Attrs: nounwind uwtable
define hidden i32 @ssl3_get_cert_verify(ptr noundef %0) #0 {
  %2 = alloca i32, align 4
  %3 = alloca ptr, align 8
  %4 = alloca i32, align 4
  %5 = alloca i32, align 4
  %6 = alloca i32, align 4
  %7 = alloca i64, align 8
  %8 = alloca %struct.cbs_st, align 8
  %9 = alloca %struct.cbs_st, align 8
  %10 = alloca ptr, align 8
  %11 = alloca ptr, align 8
  %12 = alloca ptr, align 8
  %13 = alloca [64 x i8], align 16
  %14 = alloca i64, align 8
  %15 = alloca ptr, align 8
  %16 = alloca i32, align 4
  %17 = alloca i8, align 1
  %18 = alloca i8, align 1
  %19 = alloca i32, align 4
  store ptr %0, ptr %3, align 8, !tbaa !6
  call void @llvm.lifetime.start.p0(i64 4, ptr %4) #9
  call void @llvm.lifetime.start.p0(i64 4, ptr %5) #9
  call void @llvm.lifetime.start.p0(i64 4, ptr %6) #9
  store i32 0, ptr %6, align 4, !tbaa !14
  call void @llvm.lifetime.start.p0(i64 8, ptr %7) #9
  call void @llvm.lifetime.start.p0(i64 16, ptr %8) #9
  call void @llvm.lifetime.start.p0(i64 16, ptr %9) #9
  call void @llvm.lifetime.start.p0(i64 8, ptr %10) #9
  %20 = load ptr, ptr %3, align 8, !tbaa !6
  %21 = getelementptr inbounds nuw %struct.ssl_st, ptr %20, i32 0, i32 25
  %22 = load ptr, ptr %21, align 8, !tbaa !82
  %23 = getelementptr inbounds nuw %struct.ssl_session_st, ptr %22, i32 0, i32 10
  %24 = load ptr, ptr %23, align 8, !tbaa !83
  store ptr %24, ptr %10, align 8, !tbaa !155
  call void @llvm.lifetime.start.p0(i64 8, ptr %11) #9
  store ptr null, ptr %11, align 8, !tbaa !165
  call void @llvm.lifetime.start.p0(i64 8, ptr %12) #9
  store ptr null, ptr %12, align 8, !tbaa !150
  call void @llvm.lifetime.start.p0(i64 64, ptr %13) #9
  call void @llvm.lifetime.start.p0(i64 8, ptr %14) #9
  call void @llvm.lifetime.start.p0(i64 8, ptr %15) #9
  store ptr null, ptr %15, align 8, !tbaa !166
  %25 = load ptr, ptr %10, align 8, !tbaa !155
  %26 = icmp eq ptr %25, null
  br i1 %26, label %27, label %29

27:                                               ; preds = %1
  %28 = load ptr, ptr %3, align 8, !tbaa !6
  call void @ssl3_free_handshake_buffer(ptr noundef %28)
  store i32 1, ptr %2, align 4
  store i32 1, ptr %16, align 4
  br label %155

29:                                               ; preds = %1
  %30 = load ptr, ptr %3, align 8, !tbaa !6
  %31 = getelementptr inbounds nuw %struct.ssl_st, ptr %30, i32 0, i32 3
  %32 = load ptr, ptr %31, align 8, !tbaa !76
  %33 = getelementptr inbounds nuw %struct.ssl_protocol_method_st, ptr %32, i32 0, i32 5
  %34 = load ptr, ptr %33, align 8, !tbaa !104
  %35 = load ptr, ptr %3, align 8, !tbaa !6
  %36 = call i64 %34(ptr noundef %35, i32 noundef 8608, i32 noundef 8609, i32 noundef 15, i64 noundef 16384, i32 noundef 0, ptr noundef %5)
  store i64 %36, ptr %7, align 8, !tbaa !91
  %37 = load i32, ptr %5, align 4, !tbaa !14
  %38 = icmp ne i32 %37, 0
  br i1 %38, label %42, label %39

39:                                               ; preds = %29
  %40 = load i64, ptr %7, align 8, !tbaa !91
  %41 = trunc i64 %40 to i32
  store i32 %41, ptr %2, align 4
  store i32 1, ptr %16, align 4
  br label %155

42:                                               ; preds = %29
  %43 = load ptr, ptr %10, align 8, !tbaa !155
  %44 = call ptr @X509_get_pubkey(ptr noundef %43)
  store ptr %44, ptr %11, align 8, !tbaa !165
  %45 = load ptr, ptr %11, align 8, !tbaa !165
  %46 = icmp eq ptr %45, null
  br i1 %46, label %47, label %48

47:                                               ; preds = %42
  br label %151

48:                                               ; preds = %42
  %49 = load ptr, ptr %10, align 8, !tbaa !155
  %50 = load ptr, ptr %11, align 8, !tbaa !165
  %51 = call i32 @X509_certificate_type(ptr noundef %49, ptr noundef %50)
  %52 = and i32 %51, 16
  %53 = icmp ne i32 %52, 0
  br i1 %53, label %54, label %64

54:                                               ; preds = %48
  %55 = load ptr, ptr %11, align 8, !tbaa !165
  %56 = getelementptr inbounds nuw %struct.evp_pkey_st, ptr %55, i32 0, i32 1
  %57 = load i32, ptr %56, align 4, !tbaa !167
  %58 = icmp ne i32 %57, 6
  br i1 %58, label %59, label %65

59:                                               ; preds = %54
  %60 = load ptr, ptr %11, align 8, !tbaa !165
  %61 = getelementptr inbounds nuw %struct.evp_pkey_st, ptr %60, i32 0, i32 1
  %62 = load i32, ptr %61, align 4, !tbaa !167
  %63 = icmp ne i32 %62, 408
  br i1 %63, label %64, label %65

64:                                               ; preds = %59, %48
  store i32 43, ptr %4, align 4, !tbaa !14
  call void @ERR_put_error(i32 noundef 16, i32 noundef 0, i32 noundef 193, ptr noundef @.str, i32 noundef 1754)
  br label %146

65:                                               ; preds = %59, %54
  %66 = load ptr, ptr %3, align 8, !tbaa !6
  %67 = getelementptr inbounds nuw %struct.ssl_st, ptr %66, i32 0, i32 11
  %68 = load ptr, ptr %67, align 8, !tbaa !107
  %69 = load i64, ptr %7, align 8, !tbaa !91
  call void @CBS_init(ptr noundef %8, ptr noundef %68, i64 noundef %69)
  %70 = load ptr, ptr %3, align 8, !tbaa !6
  %71 = call zeroext i16 @ssl3_protocol_version(ptr noundef %70)
  %72 = zext i16 %71 to i32
  %73 = icmp sge i32 %72, 771
  br i1 %73, label %74, label %93

74:                                               ; preds = %65
  call void @llvm.lifetime.start.p0(i64 1, ptr %17) #9
  call void @llvm.lifetime.start.p0(i64 1, ptr %18) #9
  %75 = call i32 @CBS_get_u8(ptr noundef %8, ptr noundef %17)
  %76 = icmp ne i32 %75, 0
  br i1 %76, label %77, label %80

77:                                               ; preds = %74
  %78 = call i32 @CBS_get_u8(ptr noundef %8, ptr noundef %18)
  %79 = icmp ne i32 %78, 0
  br i1 %79, label %81, label %80

80:                                               ; preds = %77, %74
  store i32 50, ptr %4, align 4, !tbaa !14
  call void @ERR_put_error(i32 noundef 16, i32 noundef 0, i32 noundef 137, ptr noundef @.str, i32 noundef 1766)
  store i32 3, ptr %16, align 4
  br label %90

81:                                               ; preds = %77
  %82 = load ptr, ptr %3, align 8, !tbaa !6
  %83 = load i8, ptr %17, align 1, !tbaa !90
  %84 = load i8, ptr %18, align 1, !tbaa !90
  %85 = load ptr, ptr %11, align 8, !tbaa !165
  %86 = call i32 @tls12_check_peer_sigalg(ptr noundef %82, ptr noundef %12, ptr noundef %4, i8 noundef zeroext %83, i8 noundef zeroext %84, ptr noundef %85)
  %87 = icmp ne i32 %86, 0
  br i1 %87, label %89, label %88

88:                                               ; preds = %81
  store i32 3, ptr %16, align 4
  br label %90

89:                                               ; preds = %81
  store i32 0, ptr %16, align 4
  br label %90

90:                                               ; preds = %88, %80, %89
  call void @llvm.lifetime.end.p0(i64 1, ptr %18) #9
  call void @llvm.lifetime.end.p0(i64 1, ptr %17) #9
  %91 = load i32, ptr %16, align 4
  switch i32 %91, label %155 [
    i32 0, label %92
    i32 3, label %146
  ]

92:                                               ; preds = %90
  br label %93

93:                                               ; preds = %92, %65
  %94 = load ptr, ptr %3, align 8, !tbaa !6
  %95 = getelementptr inbounds [64 x i8], ptr %13, i64 0, i64 0
  %96 = load ptr, ptr %11, align 8, !tbaa !165
  %97 = getelementptr inbounds nuw %struct.evp_pkey_st, ptr %96, i32 0, i32 1
  %98 = load i32, ptr %97, align 4, !tbaa !167
  %99 = call i32 @ssl3_cert_verify_hash(ptr noundef %94, ptr noundef %95, ptr noundef %14, ptr noundef %12, i32 noundef %98)
  %100 = icmp ne i32 %99, 0
  br i1 %100, label %102, label %101

101:                                              ; preds = %93
  br label %151

102:                                              ; preds = %93
  %103 = load ptr, ptr %3, align 8, !tbaa !6
  call void @ssl3_free_handshake_buffer(ptr noundef %103)
  %104 = load ptr, ptr %3, align 8, !tbaa !6
  %105 = call i32 @ssl3_hash_current_message(ptr noundef %104)
  %106 = icmp ne i32 %105, 0
  br i1 %106, label %108, label %107

107:                                              ; preds = %102
  br label %151

108:                                              ; preds = %102
  %109 = call i32 @CBS_get_u16_length_prefixed(ptr noundef %8, ptr noundef %9)
  %110 = icmp ne i32 %109, 0
  br i1 %110, label %111, label %114

111:                                              ; preds = %108
  %112 = call i64 @CBS_len(ptr noundef %8)
  %113 = icmp ne i64 %112, 0
  br i1 %113, label %114, label %115

114:                                              ; preds = %111, %108
  store i32 50, ptr %4, align 4, !tbaa !14
  call void @ERR_put_error(i32 noundef 16, i32 noundef 0, i32 noundef 137, ptr noundef @.str, i32 noundef 1790)
  br label %146

115:                                              ; preds = %111
  %116 = load ptr, ptr %11, align 8, !tbaa !165
  %117 = call ptr @EVP_PKEY_CTX_new(ptr noundef %116, ptr noundef null)
  store ptr %117, ptr %15, align 8, !tbaa !166
  %118 = load ptr, ptr %15, align 8, !tbaa !166
  %119 = icmp eq ptr %118, null
  br i1 %119, label %120, label %121

120:                                              ; preds = %115
  br label %151

121:                                              ; preds = %115
  %122 = load ptr, ptr %15, align 8, !tbaa !166
  %123 = call i32 @EVP_PKEY_verify_init(ptr noundef %122)
  %124 = icmp ne i32 %123, 0
  br i1 %124, label %125, label %138

125:                                              ; preds = %121
  %126 = load ptr, ptr %15, align 8, !tbaa !166
  %127 = load ptr, ptr %12, align 8, !tbaa !150
  %128 = call i32 @EVP_PKEY_CTX_set_signature_md(ptr noundef %126, ptr noundef %127)
  %129 = icmp ne i32 %128, 0
  br i1 %129, label %130, label %138

130:                                              ; preds = %125
  %131 = load ptr, ptr %15, align 8, !tbaa !166
  %132 = call ptr @CBS_data(ptr noundef %9)
  %133 = call i64 @CBS_len(ptr noundef %9)
  %134 = getelementptr inbounds [64 x i8], ptr %13, i64 0, i64 0
  %135 = load i64, ptr %14, align 8, !tbaa !91
  %136 = call i32 @EVP_PKEY_verify(ptr noundef %131, ptr noundef %132, i64 noundef %133, ptr noundef %134, i64 noundef %135)
  %137 = icmp ne i32 %136, 0
  br label %138

138:                                              ; preds = %130, %125, %121
  %139 = phi i1 [ false, %125 ], [ false, %121 ], [ %137, %130 ]
  %140 = zext i1 %139 to i32
  store i32 %140, ptr %19, align 4, !tbaa !14
  %141 = load i32, ptr %19, align 4, !tbaa !14
  %142 = icmp ne i32 %141, 0
  br i1 %142, label %144, label %143

143:                                              ; preds = %138
  store i32 51, ptr %4, align 4, !tbaa !14
  call void @ERR_put_error(i32 noundef 16, i32 noundef 0, i32 noundef 114, ptr noundef @.str, i32 noundef 1808)
  br label %146

144:                                              ; preds = %138
  store i32 1, ptr %6, align 4, !tbaa !14
  br i1 false, label %145, label %150

145:                                              ; preds = %144
  br label %146

146:                                              ; preds = %145, %90, %143, %114, %64
  %147 = load ptr, ptr %3, align 8, !tbaa !6
  %148 = load i32, ptr %4, align 4, !tbaa !14
  %149 = call i32 @ssl3_send_alert(ptr noundef %147, i32 noundef 2, i32 noundef %148)
  br label %150

150:                                              ; preds = %146, %144
  br label %151

151:                                              ; preds = %150, %120, %107, %101, %47
  %152 = load ptr, ptr %15, align 8, !tbaa !166
  call void @EVP_PKEY_CTX_free(ptr noundef %152)
  %153 = load ptr, ptr %11, align 8, !tbaa !165
  call void @EVP_PKEY_free(ptr noundef %153)
  %154 = load i32, ptr %6, align 4, !tbaa !14
  store i32 %154, ptr %2, align 4
  store i32 1, ptr %16, align 4
  br label %155

155:                                              ; preds = %151, %90, %39, %27
  call void @llvm.lifetime.end.p0(i64 8, ptr %15) #9
  call void @llvm.lifetime.end.p0(i64 8, ptr %14) #9
  call void @llvm.lifetime.end.p0(i64 64, ptr %13) #9
  call void @llvm.lifetime.end.p0(i64 8, ptr %12) #9
  call void @llvm.lifetime.end.p0(i64 8, ptr %11) #9
  call void @llvm.lifetime.end.p0(i64 8, ptr %10) #9
  call void @llvm.lifetime.end.p0(i64 16, ptr %9) #9
  call void @llvm.lifetime.end.p0(i64 16, ptr %8) #9
  call void @llvm.lifetime.end.p0(i64 8, ptr %7) #9
  call void @llvm.lifetime.end.p0(i64 4, ptr %6) #9
  call void @llvm.lifetime.end.p0(i64 4, ptr %5) #9
  call void @llvm.lifetime.end.p0(i64 4, ptr %4) #9
  %156 = load i32, ptr %2, align 4
  ret i32 %156
}