; Function Attrs: nounwind uwtable
define hidden i32 @ssl3_get_cert_verify(ptr noundef %0) local_unnamed_addr #0 {
  %2 = alloca i32, align 4
  %3 = alloca i32, align 4
  %4 = alloca %struct.cbs_st, align 8
  %5 = alloca %struct.cbs_st, align 8
  %6 = alloca ptr, align 8
  %7 = alloca [64 x i8], align 16
  %8 = alloca i64, align 8
  %9 = alloca i8, align 1
  %10 = alloca i8, align 1
  call void @llvm.lifetime.start.p0(i64 4, ptr nonnull %2) #10
  call void @llvm.lifetime.start.p0(i64 4, ptr nonnull %3) #10
  call void @llvm.lifetime.start.p0(i64 16, ptr nonnull %4) #10
  call void @llvm.lifetime.start.p0(i64 16, ptr nonnull %5) #10
  %11 = getelementptr inbounds nuw i8, ptr %0, i64 184
  %12 = load ptr, ptr %11, align 8, !tbaa !79
  %13 = getelementptr inbounds nuw i8, ptr %12, i64 144
  %14 = load ptr, ptr %13, align 8, !tbaa !80
  call void @llvm.lifetime.start.p0(i64 8, ptr nonnull %6) #10
  store ptr null, ptr %6, align 8, !tbaa !152
  call void @llvm.lifetime.start.p0(i64 64, ptr nonnull %7) #10
  call void @llvm.lifetime.start.p0(i64 8, ptr nonnull %8) #10
  %15 = icmp eq ptr %14, null
  br i1 %15, label %16, label %17

16:                                               ; preds = %1
  tail call void @ssl3_free_handshake_buffer(ptr noundef nonnull %0) #10
  br label %78

17:                                               ; preds = %1
  %18 = getelementptr inbounds nuw i8, ptr %0, i64 8
  %19 = load ptr, ptr %18, align 8, !tbaa !64
  %20 = getelementptr inbounds nuw i8, ptr %19, i64 40
  %21 = load ptr, ptr %20, align 8, !tbaa !100
  %22 = call i64 %21(ptr noundef nonnull %0, i32 noundef 8608, i32 noundef 8609, i32 noundef 15, i64 noundef 16384, i32 noundef 0, ptr noundef nonnull %3) #10
  %23 = load i32, ptr %3, align 4, !tbaa !93
  %.not = icmp eq i32 %23, 0
  br i1 %.not, label %24, label %26

24:                                               ; preds = %17
  %25 = trunc i64 %22 to i32
  br label %78

26:                                               ; preds = %17
  %27 = call ptr @X509_get_pubkey(ptr noundef nonnull %14) #10
  %28 = icmp eq ptr %27, null
  br i1 %28, label %77, label %29

29:                                               ; preds = %26
  %30 = call i32 @X509_certificate_type(ptr noundef nonnull %14, ptr noundef nonnull %27) #10
  %31 = and i32 %30, 16
  %.not40 = icmp eq i32 %31, 0
  br i1 %.not40, label %35, label %32

32:                                               ; preds = %29
  %33 = getelementptr inbounds nuw i8, ptr %27, i64 4
  %34 = load i32, ptr %33, align 4, !tbaa !153
  switch i32 %34, label %35 [
    i32 6, label %36
    i32 408, label %36
  ]

35:                                               ; preds = %32, %29
  store i32 43, ptr %2, align 4, !tbaa !93
  call void @ERR_put_error(i32 noundef 16, i32 noundef 0, i32 noundef 193, ptr noundef nonnull @.str, i32 noundef 1754) #10
  br label %74

36:                                               ; preds = %32, %32
  %37 = getelementptr inbounds nuw i8, ptr %0, i64 64
  %38 = load ptr, ptr %37, align 8, !tbaa !104
  call void @CBS_init(ptr noundef nonnull %4, ptr noundef %38, i64 noundef %22) #10
  %39 = call zeroext i16 @ssl3_protocol_version(ptr noundef nonnull %0) #10
  %40 = icmp ugt i16 %39, 770
  br i1 %40, label %41, label %51

41:                                               ; preds = %36
  call void @llvm.lifetime.start.p0(i64 1, ptr nonnull %9) #10
  call void @llvm.lifetime.start.p0(i64 1, ptr nonnull %10) #10
  %42 = call i32 @CBS_get_u8(ptr noundef nonnull %4, ptr noundef nonnull %9) #10
  %.not43 = icmp eq i32 %42, 0
  br i1 %.not43, label %45, label %43

43:                                               ; preds = %41
  %44 = call i32 @CBS_get_u8(ptr noundef nonnull %4, ptr noundef nonnull %10) #10
  %.not44 = icmp eq i32 %44, 0
  br i1 %.not44, label %45, label %46

45:                                               ; preds = %43, %41
  store i32 50, ptr %2, align 4, !tbaa !93
  call void @ERR_put_error(i32 noundef 16, i32 noundef 0, i32 noundef 137, ptr noundef nonnull @.str, i32 noundef 1766) #10
  br label %.thread

46:                                               ; preds = %43
  %47 = load i8, ptr %9, align 1, !tbaa !86
  %48 = load i8, ptr %10, align 1, !tbaa !86
  %49 = call i32 @tls12_check_peer_sigalg(ptr noundef nonnull %0, ptr noundef nonnull %6, ptr noundef nonnull %2, i8 noundef zeroext %47, i8 noundef zeroext %48, ptr noundef nonnull %27) #10
  %.not45 = icmp eq i32 %49, 0
  br i1 %.not45, label %.thread, label %50

.thread:                                          ; preds = %45, %46
  call void @llvm.lifetime.end.p0(i64 1, ptr nonnull %10) #10
  call void @llvm.lifetime.end.p0(i64 1, ptr nonnull %9) #10
  br label %74

50:                                               ; preds = %46
  call void @llvm.lifetime.end.p0(i64 1, ptr nonnull %10) #10
  call void @llvm.lifetime.end.p0(i64 1, ptr nonnull %9) #10
  br label %51

51:                                               ; preds = %50, %36
  %52 = load i32, ptr %33, align 4, !tbaa !153
  %53 = call i32 @ssl3_cert_verify_hash(ptr noundef nonnull %0, ptr noundef nonnull %7, ptr noundef nonnull %8, ptr noundef nonnull %6, i32 noundef %52) #10
  %.not46 = icmp eq i32 %53, 0
  br i1 %.not46, label %77, label %54

54:                                               ; preds = %51
  call void @ssl3_free_handshake_buffer(ptr noundef nonnull %0) #10
  %55 = call i32 @ssl3_hash_current_message(ptr noundef nonnull %0) #10
  %.not47 = icmp eq i32 %55, 0
  br i1 %.not47, label %77, label %56

56:                                               ; preds = %54
  %57 = call i32 @CBS_get_u16_length_prefixed(ptr noundef nonnull %4, ptr noundef nonnull %5) #10
  %.not48 = icmp eq i32 %57, 0
  br i1 %.not48, label %60, label %58

58:                                               ; preds = %56
  %59 = call i64 @CBS_len(ptr noundef nonnull %4) #10
  %.not49 = icmp eq i64 %59, 0
  br i1 %.not49, label %61, label %60

60:                                               ; preds = %58, %56
  store i32 50, ptr %2, align 4, !tbaa !93
  call void @ERR_put_error(i32 noundef 16, i32 noundef 0, i32 noundef 137, ptr noundef nonnull @.str, i32 noundef 1790) #10
  br label %74

61:                                               ; preds = %58
  %62 = call ptr @EVP_PKEY_CTX_new(ptr noundef nonnull %27, ptr noundef null) #10
  %63 = icmp eq ptr %62, null
  br i1 %63, label %77, label %64

64:                                               ; preds = %61
  %65 = call i32 @EVP_PKEY_verify_init(ptr noundef nonnull %62) #10
  %.not50 = icmp eq i32 %65, 0
  br i1 %.not50, label %.critedge, label %66

66:                                               ; preds = %64
  %67 = load ptr, ptr %6, align 8, !tbaa !152
  %68 = call i32 @EVP_PKEY_CTX_set_signature_md(ptr noundef nonnull %62, ptr noundef %67) #10
  %.not51 = icmp eq i32 %68, 0
  br i1 %.not51, label %.critedge, label %69

69:                                               ; preds = %66
  %70 = call ptr @CBS_data(ptr noundef nonnull %5) #10
  %71 = call i64 @CBS_len(ptr noundef nonnull %5) #10
  %72 = load i64, ptr %8, align 8, !tbaa !97
  %73 = call i32 @EVP_PKEY_verify(ptr noundef nonnull %62, ptr noundef %70, i64 noundef %71, ptr noundef nonnull %7, i64 noundef %72) #10
  %.not53 = icmp eq i32 %73, 0
  br i1 %.not53, label %.critedge, label %77

.critedge:                                        ; preds = %66, %64, %69
  store i32 51, ptr %2, align 4, !tbaa !93
  call void @ERR_put_error(i32 noundef 16, i32 noundef 0, i32 noundef 114, ptr noundef nonnull @.str, i32 noundef 1808) #10
  br label %74

74:                                               ; preds = %.thread, %.critedge, %60, %35
  %.1 = phi ptr [ null, %35 ], [ null, %60 ], [ %62, %.critedge ], [ null, %.thread ]
  %75 = load i32, ptr %2, align 4, !tbaa !93
  %76 = call i32 @ssl3_send_alert(ptr noundef nonnull %0, i32 noundef 2, i32 noundef %75) #10
  br label %77

77:                                               ; preds = %69, %74, %61, %54, %51, %26
  %.034 = phi i32 [ 0, %26 ], [ 0, %74 ], [ 0, %61 ], [ 0, %54 ], [ 0, %51 ], [ 1, %69 ]
  %.033 = phi ptr [ null, %26 ], [ %.1, %74 ], [ null, %61 ], [ null, %54 ], [ null, %51 ], [ %62, %69 ]
  call void @EVP_PKEY_CTX_free(ptr noundef %.033) #10
  call void @EVP_PKEY_free(ptr noundef %27) #10
  br label %78

78:                                               ; preds = %77, %24, %16
  %.0 = phi i32 [ 1, %16 ], [ %.034, %77 ], [ %25, %24 ]
  call void @llvm.lifetime.end.p0(i64 8, ptr nonnull %8) #10
  call void @llvm.lifetime.end.p0(i64 64, ptr nonnull %7) #10
  call void @llvm.lifetime.end.p0(i64 8, ptr nonnull %6) #10
  call void @llvm.lifetime.end.p0(i64 16, ptr nonnull %5) #10
  call void @llvm.lifetime.end.p0(i64 16, ptr nonnull %4) #10
  call void @llvm.lifetime.end.p0(i64 4, ptr nonnull %3) #10
  call void @llvm.lifetime.end.p0(i64 4, ptr nonnull %2) #10
  ret i32 %.0
}